target datalayout = "e-m:e-p270:32:32-p271:32:32-p272:64:64-i64:64-i128:128-f80:128-n8:16:32:64-S128"
target triple = "x86_64-pc-linux-gnu"

%struct.__va_list_tag = type { i32, i32, ptr, ptr }

@ERROR_COUNT = internal global i32 0, align 4
@ON_LINE = internal global i8 0, align 1
@stdout = external global ptr, align 8
@HANGING_OUTPUT = internal global i8 0, align 1
@ONE_ERROR = internal global i32 0, align 4
@.str.76 = private unnamed_addr constant [4 x i8] c" {\0A\00", align 1
@.str.77 = private unnamed_addr constant [2 x i8] c"!\00", align 1

; Function Attrs: nounwind uwtable
define internal void @go_offline_with_marker(ptr noundef %0) #0 {
  %2 = alloca ptr, align 8
  %3 = alloca i8, align 1
  store ptr %0, ptr %2, align 8, !tbaa !15
  call void @llvm.lifetime.start.p0(i64 1, ptr %3) #12
  %4 = load i8, ptr @ON_LINE, align 1, !tbaa !20
  store i8 %4, ptr %3, align 1, !tbaa !20
  %5 = load i8, ptr @ON_LINE, align 1, !tbaa !20
  %6 = icmp ne i8 %5, 0
  br i1 %6, label %7, label %8

7:                                                ; preds = %1
  call void (ptr, ...) @log_testinfo(ptr noundef @.str.76)
  store i8 0, ptr @ON_LINE, align 1, !tbaa !20
  br label %8

8:                                                ; preds = %7, %1
  %9 = load i8, ptr @HANGING_OUTPUT, align 1, !tbaa !20
  %10 = icmp ne i8 %9, 0
  br i1 %10, label %11, label %15

11:                                               ; preds = %8
  %12 = load i8, ptr %3, align 1, !tbaa !20
  %13 = sext i8 %12 to i32
  %14 = icmp ne i32 %13, 0
  br i1 %14, label %15, label %23

15:                                               ; preds = %11, %8
  %16 = load ptr, ptr %2, align 8, !tbaa !15
  %17 = icmp ne ptr %16, null
  br i1 %17, label %18, label %22

18:                                               ; preds = %15
  %19 = load ptr, ptr %2, align 8, !tbaa !15
  %20 = load ptr, ptr @stdout, align 8, !tbaa !27
  %21 = call i32 @fputs(ptr noundef %19, ptr noundef %20)
  br label %22

22:                                               ; preds = %18, %15
  br label %23

23:                                               ; preds = %22, %11
  call void @llvm.lifetime.end.p0(i64 1, ptr %3) #12
  ret void
}

; Function Attrs: nounwind uwtable
define internal void @first_line_err() #0 {
  call void @go_offline_with_marker(ptr noundef @.str.77)
  ret void
}

; Function Attrs: nounwind uwtable
define void @log_err(ptr noundef %0, ...) #0 {
  %2 = alloca ptr, align 8
  %3 = alloca [1 x %struct.__va_list_tag], align 16
  store ptr %0, ptr %2, align 8, !tbaa !15
  call void @llvm.lifetime.start.p0(i64 24, ptr %3) #12
  call void @first_line_err()
  %4 = load ptr, ptr %2, align 8, !tbaa !15
  %5 = call ptr @strchr(ptr noundef %4, i32 noundef 10) #14
  %6 = icmp ne ptr %5, null
  br i1 %6, label %7, label %10

7:                                                ; preds = %1
  %8 = load i32, ptr @ERROR_COUNT, align 4, !tbaa !18
  %9 = add nsw i32 %8, 1
  store i32 %9, ptr @ERROR_COUNT, align 4, !tbaa !18
  br label %11

10:                                               ; preds = %1
  store i32 1, ptr @ONE_ERROR, align 4, !tbaa !18
  br label %11

11:                                               ; preds = %10, %7
  %12 = getelementptr inbounds [1 x %struct.__va_list_tag], ptr %3, i64 0, i64 0
  call void @llvm.va_start.p0(ptr %12)
  %13 = load ptr, ptr %2, align 8, !tbaa !15
  %14 = getelementptr inbounds [1 x %struct.__va_list_tag], ptr %3, i64 0, i64 0
  call void @vlog_err(ptr noundef null, ptr noundef %13, ptr noundef %14)
  %15 = getelementptr inbounds [1 x %struct.__va_list_tag], ptr %3, i64 0, i64 0
  call void @llvm.va_end.p0(ptr %15)
  call void @llvm.lifetime.end.p0(i64 24, ptr %3) #12
  ret void
}