; Function Attrs: nofree nounwind uwtable
define void @log_err(ptr noundef readonly %0, ...) local_unnamed_addr #2 {
  %2 = alloca [1 x %struct.__va_list_tag], align 16
  call void @llvm.lifetime.start.p0(i64 24, ptr nonnull %2) #23
  %.b.i.i = load i1, ptr @ON_LINE, align 1
  br i1 %.b.i.i, label %.thread.i, label %3

.thread.i:                                        ; preds = %1
  tail call void (ptr, ...) @log_testinfo(ptr noundef nonnull @.str.76)
  store i1 false, ptr @ON_LINE, align 1
  br label %4

3:                                                ; preds = %1
  %.b6.i.i = load i1, ptr @HANGING_OUTPUT, align 1
  br i1 %.b6.i.i, label %first_line_err.exit, label %4

4:                                                ; preds = %3, %.thread.i
  %5 = load ptr, ptr @stdout, align 8, !tbaa !16
  %fputc.i = tail call i32 @fputc(i32 33, ptr %5)
  br label %first_line_err.exit

first_line_err.exit:                              ; preds = %3, %4
  %6 = tail call ptr @strchr(ptr noundef nonnull dereferenceable(1) %0, i32 noundef 10) #25
  %.not = icmp eq ptr %6, null
  br i1 %.not, label %10, label %7

7:                                                ; preds = %first_line_err.exit
  %8 = load i32, ptr @ERROR_COUNT, align 4, !tbaa !18
  %9 = add nsw i32 %8, 1
  store i32 %9, ptr @ERROR_COUNT, align 4, !tbaa !18
  br label %11

10:                                               ; preds = %first_line_err.exit
  store i32 1, ptr @ONE_ERROR, align 4, !tbaa !18
  br label %11

11:                                               ; preds = %10, %7
  call void @llvm.va_start.p0(ptr nonnull %2)
  call fastcc void @vlog_err(ptr noundef nonnull %0, ptr noundef %2)
  call void @llvm.va_end.p0(ptr nonnull %2)
  call void @llvm.lifetime.end.p0(i64 24, ptr nonnull %2) #23
  ret void
}